(dp1
V0776a103
p2
(dp3
S'b'
(lp4
sS'f'
(lp5
sS'm'
(lp6
sS'l'
(dp7
S'0'
(F0
F1326
tp8
sS'(0, 14)'
p9
(F0
F1781
tp10
ssS's'
(lp11
(lp12
I1484
aI1506
aasS'x'
VPackages/jQuery-Sublime-Text-Package/Syntaxes/jQuery (JavaScript).tmLanguage
p13
sS'id'
p14
L2530L
ss.